; Function Attrs: nounwind uwtable
define internal range(i32 -1094995529, 268435456) i32 @wmapro_decode_packet(ptr noundef %0, ptr noundef initializes((112, 116)) %1, ptr noundef writeonly captures(none) %2, ptr noundef readonly captures(none) %3) #1 {
  %5 = getelementptr inbounds nuw i8, ptr %0, i64 32
  %6 = load ptr, ptr %5, align 8, !tbaa !4
  %7 = getelementptr inbounds nuw i8, ptr %6, i64 65848
  %8 = load i16, ptr %7, align 8, !tbaa !27
  %9 = zext i16 %8 to i32
  %10 = getelementptr inbounds nuw i8, ptr %1, i64 112
  store i32 %9, ptr %10, align 8, !tbaa !34
  %11 = tail call i32 @ff_get_buffer(ptr noundef %0, ptr noundef %1, i32 noundef 0) #11
  %12 = icmp slt i32 %11, 0
  br i1 %12, label %13, label %15

13:                                               ; preds = %4
  %14 = getelementptr inbounds nuw i8, ptr %6, i64 68260
  store i8 1, ptr %14, align 4, !tbaa !39
  br label %17

15:                                               ; preds = %4
  %16 = tail call fastcc i32 @decode_packet(ptr noundef nonnull %0, ptr noundef nonnull %6, ptr noundef nonnull %1, ptr noundef %2, ptr noundef %3)
  br label %17

17:                                               ; preds = %15, %13
  %.0 = phi i32 [ 0, %13 ], [ %16, %15 ]
  ret i32 %.0
}